; Function Attrs: nounwind uwtable
define internal range(i32 0, 2) i32 @test_qlog() #0 {
  %1 = alloca %struct.qlog_trace_info_st, align 8
  %2 = alloca ptr, align 8
  call void @llvm.lifetime.start.p0(i64 88, ptr nonnull %1) #6
  call void @llvm.memset.p0.i64(ptr noundef nonnull align 8 dereferenceable(88) %1, i8 0, i64 72, i1 false)
  call void @llvm.lifetime.start.p0(i64 8, ptr nonnull %2) #6
  store ptr null, ptr %2, align 8, !tbaa !4
  store i64 170653117000000000, ptr @last_time.0, align 8, !tbaa !9
  store i8 1, ptr %1, align 8, !tbaa !11
  %3 = getelementptr inbounds nuw i8, ptr %1, i64 1
  store i8 85, ptr %3, align 1, !tbaa !15
  %4 = getelementptr inbounds nuw i8, ptr %1, i64 24
  store ptr @.str.2, ptr %4, align 8, !tbaa !16
  %5 = getelementptr inbounds nuw i8, ptr %1, i64 32
  store ptr @.str.3, ptr %5, align 8, !tbaa !17
  %6 = getelementptr inbounds nuw i8, ptr %1, i64 40
  store ptr @.str.4, ptr %6, align 8, !tbaa !18
  %7 = getelementptr inbounds nuw i8, ptr %1, i64 72
  store i64 123, ptr %7, align 8, !tbaa !19
  %8 = getelementptr inbounds nuw i8, ptr %1, i64 56
  store ptr @now, ptr %8, align 8, !tbaa !20
  %9 = getelementptr inbounds nuw i8, ptr %1, i64 80
  store ptr @.str.5, ptr %9, align 8, !tbaa !21
  %10 = call ptr @ossl_qlog_new(ptr noundef nonnull %1) #6
  %11 = call i32 @test_ptr(ptr noundef nonnull @.str.6, i32 noundef 97, ptr noundef nonnull @.str.7, ptr noundef %10) #6
  %.not = icmp eq i32 %11, 0
  br i1 %.not, label %48, label %12

12:                                               ; preds = %0
  %13 = call i32 @ossl_qlog_set_event_type_enabled(ptr noundef %10, i32 noundef 5, i32 noundef 1) #6
  %14 = icmp ne i32 %13, 0
  %15 = zext i1 %14 to i32
  %16 = call i32 @test_true(ptr noundef nonnull @.str.6, i32 noundef 100, ptr noundef nonnull @.str.8, i32 noundef %15) #6
  %.not38 = icmp eq i32 %16, 0
  br i1 %.not38, label %48, label %17

17:                                               ; preds = %12
  %18 = call ptr @BIO_s_mem() #6
  %19 = call ptr @BIO_new(ptr noundef %18) #6
  %20 = call i32 @test_ptr(ptr noundef nonnull @.str.6, i32 noundef 103, ptr noundef nonnull @.str.9, ptr noundef %19) #6
  %.not39 = icmp eq i32 %20, 0
  br i1 %.not39, label %48, label %21

21:                                               ; preds = %17
  %22 = call i32 @ossl_qlog_set_sink_bio(ptr noundef %10, ptr noundef %19) #6
  %23 = icmp ne i32 %22, 0
  %24 = zext i1 %23 to i32
  %25 = call i32 @test_true(ptr noundef nonnull @.str.6, i32 noundef 106, ptr noundef nonnull @.str.10, i32 noundef %24) #6
  %.not40 = icmp eq i32 %25, 0
  br i1 %.not40, label %48, label %26

26:                                               ; preds = %21
  %27 = call i32 @ossl_qlog_event_try_begin(ptr noundef %10, i32 noundef 5, ptr noundef nonnull @.str.11, ptr noundef nonnull @.str.12, ptr noundef nonnull @.str.13) #6
  %.not41 = icmp eq i32 %27, 0
  br i1 %.not41, label %31, label %28

28:                                               ; preds = %26
  call void @ossl_qlog_str(ptr noundef %10, ptr noundef nonnull @.str.14, ptr noundef nonnull @.str.15) #6
  call void @ossl_qlog_str_len(ptr noundef %10, ptr noundef nonnull @.str.16, ptr noundef nonnull @.str.17, i64 noundef 3) #6
  call void @ossl_qlog_i64(ptr noundef %10, ptr noundef nonnull @.str.18, i64 noundef 42) #6
  call void @ossl_qlog_i64(ptr noundef %10, ptr noundef nonnull @.str.19, i64 noundef 1152921504606846976) #6
  call void @ossl_qlog_u64(ptr noundef %10, ptr noundef nonnull @.str.20, i64 noundef -1) #6
  call void @ossl_qlog_bool(ptr noundef %10, ptr noundef nonnull @.str.21, i32 noundef 0) #6
  call void @ossl_qlog_bool(ptr noundef %10, ptr noundef nonnull @.str.22, i32 noundef 1) #6
  call void @ossl_qlog_bin(ptr noundef %10, ptr noundef nonnull @.str.23, ptr noundef nonnull @bin_buf, i64 noundef 2) #6
  %29 = load i8, ptr %1, align 8, !tbaa !11
  %30 = zext i8 %29 to i64
  call void @ossl_qlog_bin(ptr noundef %10, ptr noundef nonnull @.str.24, ptr noundef nonnull %3, i64 noundef %30) #6
  call void @ossl_qlog_group_begin(ptr noundef %10, ptr noundef nonnull @.str.25) #6
  call void @ossl_qlog_str(ptr noundef %10, ptr noundef nonnull @.str.26, ptr noundef nonnull @.str.27) #6
  call void @ossl_qlog_group_end(ptr noundef %10) #6
  call void @ossl_qlog_array_begin(ptr noundef %10, ptr noundef nonnull @.str.28) #6
  call void @ossl_qlog_str(ptr noundef %10, ptr noundef null, ptr noundef nonnull @.str.29) #6
  call void @ossl_qlog_str(ptr noundef %10, ptr noundef null, ptr noundef nonnull @.str.30) #6
  call void @ossl_qlog_array_end(ptr noundef %10) #6
  call void @ossl_qlog_event_end(ptr noundef %10) #6
  br label %31

31:                                               ; preds = %28, %26
  %32 = call i32 @ossl_qlog_event_try_begin(ptr noundef %10, i32 noundef 6, ptr noundef nonnull @.str.11, ptr noundef nonnull @.str.31, ptr noundef nonnull @.str.32) #6
  %.not42 = icmp eq i32 %32, 0
  br i1 %.not42, label %34, label %33

33:                                               ; preds = %31
  call void @ossl_qlog_str(ptr noundef %10, ptr noundef nonnull @.str.14, ptr noundef nonnull @.str.15) #6
  call void @ossl_qlog_event_end(ptr noundef %10) #6
  br label %34

34:                                               ; preds = %33, %31
  %35 = call i32 @ossl_qlog_event_try_begin(ptr noundef %10, i32 noundef 5, ptr noundef nonnull @.str.11, ptr noundef nonnull @.str.12, ptr noundef nonnull @.str.13) #6
  %.not43 = icmp eq i32 %35, 0
  br i1 %.not43, label %37, label %36

36:                                               ; preds = %34
  call void @ossl_qlog_str(ptr noundef %10, ptr noundef nonnull @.str.14, ptr noundef nonnull @.str.17) #6
  call void @ossl_qlog_event_end(ptr noundef %10) #6
  br label %37

37:                                               ; preds = %36, %34
  %38 = call i32 @ossl_qlog_flush(ptr noundef %10) #6
  %39 = icmp ne i32 %38, 0
  %40 = zext i1 %39 to i32
  %41 = call i32 @test_true(ptr noundef nonnull @.str.6, i32 noundef 138, ptr noundef nonnull @.str.33, i32 noundef %40) #6
  %.not44 = icmp eq i32 %41, 0
  br i1 %.not44, label %48, label %42

42:                                               ; preds = %37
  %43 = call i64 @BIO_ctrl(ptr noundef %19, i32 noundef 3, i64 noundef 0, ptr noundef nonnull %2) #6
  %44 = call i32 @test_size_t_gt(ptr noundef nonnull @.str.6, i32 noundef 142, ptr noundef nonnull @.str.34, ptr noundef nonnull @.str.35, i64 noundef %43, i64 noundef 0) #6
  %.not45 = icmp eq i32 %44, 0
  br i1 %.not45, label %48, label %45

45:                                               ; preds = %42
  %46 = load ptr, ptr %2, align 8, !tbaa !4
  %47 = call i32 @test_mem_eq(ptr noundef nonnull @.str.6, i32 noundef 145, ptr noundef nonnull @.str.36, ptr noundef nonnull @.str.37, ptr noundef %46, i64 noundef %43, ptr noundef nonnull @expected, i64 noundef 639) #6
  %.not46 = icmp ne i32 %47, 0
  %spec.select = zext i1 %.not46 to i32
  br label %48

48:                                               ; preds = %45, %42, %37, %21, %17, %12, %0
  %.0 = phi i32 [ 0, %42 ], [ 0, %37 ], [ 0, %21 ], [ 0, %17 ], [ 0, %12 ], [ 0, %0 ], [ %spec.select, %45 ]
  call void @ossl_qlog_free(ptr noundef %10) #6
  call void @llvm.lifetime.end.p0(i64 8, ptr nonnull %2) #6
  call void @llvm.lifetime.end.p0(i64 88, ptr nonnull %1) #6
  ret i32 %.0
}